target datalayout = "e-m:e-p270:32:32-p271:32:32-p272:64:64-i64:64-i128:128-f80:128-n8:16:32:64-S128"
target triple = "x86_64-pc-linux-gnu"

%"class.icu_77::ConstChar16Ptr" = type { ptr }

@.str.16 = private unnamed_addr constant [18 x i16] [i16 117, i16 110, i16 105, i16 116, i16 45, i16 119, i16 105, i16 100, i16 116, i16 104, i16 45, i16 110, i16 97, i16 114, i16 114, i16 111, i16 119, i16 0], align 2
@.str.17 = private unnamed_addr constant [17 x i16] [i16 117, i16 110, i16 105, i16 116, i16 45, i16 119, i16 105, i16 100, i16 116, i16 104, i16 45, i16 115, i16 104, i16 111, i16 114, i16 116, i16 0], align 2
@.str.18 = private unnamed_addr constant [21 x i16] [i16 117, i16 110, i16 105, i16 116, i16 45, i16 119, i16 105, i16 100, i16 116, i16 104, i16 45, i16 102, i16 117, i16 108, i16 108, i16 45, i16 110, i16 97, i16 109, i16 101, i16 0], align 2
@.str.19 = private unnamed_addr constant [20 x i16] [i16 117, i16 110, i16 105, i16 116, i16 45, i16 119, i16 105, i16 100, i16 116, i16 104, i16 45, i16 105, i16 115, i16 111, i16 45, i16 99, i16 111, i16 100, i16 101, i16 0], align 2
@.str.20 = private unnamed_addr constant [18 x i16] [i16 117, i16 110, i16 105, i16 116, i16 45, i16 119, i16 105, i16 100, i16 116, i16 104, i16 45, i16 102, i16 111, i16 114, i16 109, i16 97, i16 108, i16 0], align 2
@.str.21 = private unnamed_addr constant [19 x i16] [i16 117, i16 110, i16 105, i16 116, i16 45, i16 119, i16 105, i16 100, i16 116, i16 104, i16 45, i16 118, i16 97, i16 114, i16 105, i16 97, i16 110, i16 116, i16 0], align 2
@.str.22 = private unnamed_addr constant [18 x i16] [i16 117, i16 110, i16 105, i16 116, i16 45, i16 119, i16 105, i16 100, i16 116, i16 104, i16 45, i16 104, i16 105, i16 100, i16 100, i16 101, i16 110, i16 0], align 2

; Function Attrs: inlinehint mustprogress nounwind uwtable
define linkonce_odr noundef ptr @_ZNK6icu_7714ConstChar16Ptr3getEv(ptr noundef nonnull align 8 dereferenceable(8) %0) #2 comdat align 2 {
  %2 = alloca ptr, align 8
  store ptr %0, ptr %2, align 8, !tbaa !29
  %3 = load ptr, ptr %2, align 8
  %4 = getelementptr inbounds nuw %"class.icu_77::ConstChar16Ptr", ptr %3, i32 0, i32 0
  %5 = load ptr, ptr %4, align 8, !tbaa !33
  ret ptr %5
}

; Function Attrs: inlinehint mustprogress uwtable
define linkonce_odr noundef ptr @_ZNK6icu_7714ConstChar16PtrcvPKDsEv(ptr noundef nonnull align 8 dereferenceable(8) %0) #3 comdat align 2 {
  %2 = alloca ptr, align 8
  store ptr %0, ptr %2, align 8, !tbaa !29
  %3 = load ptr, ptr %2, align 8
  %4 = call noundef ptr @_ZNK6icu_7714ConstChar16Ptr3getEv(ptr noundef nonnull align 8 dereferenceable(8) %3)
  ret ptr %4
}

; Function Attrs: inlinehint mustprogress nounwind uwtable
define linkonce_odr void @_ZN6icu_7714ConstChar16PtrD2Ev(ptr noundef nonnull align 8 dereferenceable(8) %0) unnamed_addr #2 comdat align 2 {
  %2 = alloca ptr, align 8
  store ptr %0, ptr %2, align 8, !tbaa !29
  %3 = load ptr, ptr %2, align 8
  %4 = getelementptr inbounds nuw %"class.icu_77::ConstChar16Ptr", ptr %3, i32 0, i32 0
  %5 = load ptr, ptr %4, align 8, !tbaa !33
  call void asm sideeffect "", "rm,~{memory},~{dirflag},~{fpsr},~{flags}"(ptr %5) #14, !srcloc !35
  ret void
}

; Function Attrs: inlinehint mustprogress uwtable
define linkonce_odr noundef nonnull align 8 dereferenceable(64) ptr @_ZN6icu_7713UnicodeString6appendENS_14ConstChar16PtrEi(ptr noundef nonnull align 8 dereferenceable(64) %0, ptr noundef %1, i32 noundef %2) #3 comdat align 2 {
  %4 = alloca ptr, align 8
  %5 = alloca ptr, align 8
  %6 = alloca i32, align 4
  store ptr %0, ptr %4, align 8, !tbaa !27
  store ptr %1, ptr %5, align 8, !tbaa !29
  store i32 %2, ptr %6, align 4, !tbaa !14
  %7 = load ptr, ptr %4, align 8
  %8 = call noundef ptr @_ZNK6icu_7714ConstChar16PtrcvPKDsEv(ptr noundef nonnull align 8 dereferenceable(8) %1)
  %9 = load i32, ptr %6, align 4, !tbaa !14
  %10 = call noundef nonnull align 8 dereferenceable(64) ptr @_ZN6icu_7713UnicodeString8doAppendEPKDsii(ptr noundef nonnull align 8 dereferenceable(64) %7, ptr noundef %8, i32 noundef 0, i32 noundef %9)
  ret ptr %10
}

; Function Attrs: inlinehint mustprogress nounwind uwtable
define linkonce_odr void @_ZN6icu_7714ConstChar16PtrC2EPKDs(ptr noundef nonnull align 8 dereferenceable(8) %0, ptr noundef %1) unnamed_addr #2 comdat align 2 {
  %3 = alloca ptr, align 8
  %4 = alloca ptr, align 8
  store ptr %0, ptr %3, align 8, !tbaa !29
  store ptr %1, ptr %4, align 8, !tbaa !31
  %5 = load ptr, ptr %3, align 8
  %6 = getelementptr inbounds nuw %"class.icu_77::ConstChar16Ptr", ptr %5, i32 0, i32 0
  %7 = load ptr, ptr %4, align 8, !tbaa !31
  store ptr %7, ptr %6, align 8, !tbaa !33
  ret void
}

; Function Attrs: mustprogress uwtable
define void @_ZN6icu_776number4impl19enum_to_stem_string9unitWidthE16UNumberUnitWidthRNS_13UnicodeStringE(i32 noundef %0, ptr noundef nonnull align 8 dereferenceable(64) %1) #1 personality ptr @__gxx_personality_v0 {
  %3 = alloca i32, align 4
  %4 = alloca ptr, align 8
  %5 = alloca %"class.icu_77::ConstChar16Ptr", align 8
  %6 = alloca ptr, align 8
  %7 = alloca i32, align 4
  %8 = alloca %"class.icu_77::ConstChar16Ptr", align 8
  %9 = alloca %"class.icu_77::ConstChar16Ptr", align 8
  %10 = alloca %"class.icu_77::ConstChar16Ptr", align 8
  %11 = alloca %"class.icu_77::ConstChar16Ptr", align 8
  %12 = alloca %"class.icu_77::ConstChar16Ptr", align 8
  %13 = alloca %"class.icu_77::ConstChar16Ptr", align 8
  store i32 %0, ptr %3, align 4, !tbaa !38
  store ptr %1, ptr %4, align 8, !tbaa !27
  %14 = load i32, ptr %3, align 4, !tbaa !38
  switch i32 %14, label %71 [
    i32 0, label %15
    i32 1, label %23
    i32 2, label %31
    i32 3, label %39
    i32 4, label %47
    i32 5, label %55
    i32 6, label %63
  ]

15:                                               ; preds = %2
  %16 = load ptr, ptr %4, align 8, !tbaa !27
  call void @_ZN6icu_7714ConstChar16PtrC2EPKDs(ptr noundef nonnull align 8 dereferenceable(8) %5, ptr noundef @.str.16)
  %17 = invoke noundef nonnull align 8 dereferenceable(64) ptr @_ZN6icu_7713UnicodeString6appendENS_14ConstChar16PtrEi(ptr noundef nonnull align 8 dereferenceable(64) %16, ptr noundef %5, i32 noundef -1)
          to label %18 unwind label %19

18:                                               ; preds = %15
  call void @_ZN6icu_7714ConstChar16PtrD2Ev(ptr noundef nonnull align 8 dereferenceable(8) %5) #14
  br label %72

19:                                               ; preds = %15
  %20 = landingpad { ptr, i32 }
          cleanup
  %21 = extractvalue { ptr, i32 } %20, 0
  store ptr %21, ptr %6, align 8
  %22 = extractvalue { ptr, i32 } %20, 1
  store i32 %22, ptr %7, align 4
  call void @_ZN6icu_7714ConstChar16PtrD2Ev(ptr noundef nonnull align 8 dereferenceable(8) %5) #14
  br label %73

23:                                               ; preds = %2
  %24 = load ptr, ptr %4, align 8, !tbaa !27
  call void @_ZN6icu_7714ConstChar16PtrC2EPKDs(ptr noundef nonnull align 8 dereferenceable(8) %8, ptr noundef @.str.17)
  %25 = invoke noundef nonnull align 8 dereferenceable(64) ptr @_ZN6icu_7713UnicodeString6appendENS_14ConstChar16PtrEi(ptr noundef nonnull align 8 dereferenceable(64) %24, ptr noundef %8, i32 noundef -1)
          to label %26 unwind label %27

26:                                               ; preds = %23
  call void @_ZN6icu_7714ConstChar16PtrD2Ev(ptr noundef nonnull align 8 dereferenceable(8) %8) #14
  br label %72

27:                                               ; preds = %23
  %28 = landingpad { ptr, i32 }
          cleanup
  %29 = extractvalue { ptr, i32 } %28, 0
  store ptr %29, ptr %6, align 8
  %30 = extractvalue { ptr, i32 } %28, 1
  store i32 %30, ptr %7, align 4
  call void @_ZN6icu_7714ConstChar16PtrD2Ev(ptr noundef nonnull align 8 dereferenceable(8) %8) #14
  br label %73

31:                                               ; preds = %2
  %32 = load ptr, ptr %4, align 8, !tbaa !27
  call void @_ZN6icu_7714ConstChar16PtrC2EPKDs(ptr noundef nonnull align 8 dereferenceable(8) %9, ptr noundef @.str.18)
  %33 = invoke noundef nonnull align 8 dereferenceable(64) ptr @_ZN6icu_7713UnicodeString6appendENS_14ConstChar16PtrEi(ptr noundef nonnull align 8 dereferenceable(64) %32, ptr noundef %9, i32 noundef -1)
          to label %34 unwind label %35

34:                                               ; preds = %31
  call void @_ZN6icu_7714ConstChar16PtrD2Ev(ptr noundef nonnull align 8 dereferenceable(8) %9) #14
  br label %72

35:                                               ; preds = %31
  %36 = landingpad { ptr, i32 }
          cleanup
  %37 = extractvalue { ptr, i32 } %36, 0
  store ptr %37, ptr %6, align 8
  %38 = extractvalue { ptr, i32 } %36, 1
  store i32 %38, ptr %7, align 4
  call void @_ZN6icu_7714ConstChar16PtrD2Ev(ptr noundef nonnull align 8 dereferenceable(8) %9) #14
  br label %73

39:                                               ; preds = %2
  %40 = load ptr, ptr %4, align 8, !tbaa !27
  call void @_ZN6icu_7714ConstChar16PtrC2EPKDs(ptr noundef nonnull align 8 dereferenceable(8) %10, ptr noundef @.str.19)
  %41 = invoke noundef nonnull align 8 dereferenceable(64) ptr @_ZN6icu_7713UnicodeString6appendENS_14ConstChar16PtrEi(ptr noundef nonnull align 8 dereferenceable(64) %40, ptr noundef %10, i32 noundef -1)
          to label %42 unwind label %43

42:                                               ; preds = %39
  call void @_ZN6icu_7714ConstChar16PtrD2Ev(ptr noundef nonnull align 8 dereferenceable(8) %10) #14
  br label %72

43:                                               ; preds = %39
  %44 = landingpad { ptr, i32 }
          cleanup
  %45 = extractvalue { ptr, i32 } %44, 0
  store ptr %45, ptr %6, align 8
  %46 = extractvalue { ptr, i32 } %44, 1
  store i32 %46, ptr %7, align 4
  call void @_ZN6icu_7714ConstChar16PtrD2Ev(ptr noundef nonnull align 8 dereferenceable(8) %10) #14
  br label %73

47:                                               ; preds = %2
  %48 = load ptr, ptr %4, align 8, !tbaa !27
  call void @_ZN6icu_7714ConstChar16PtrC2EPKDs(ptr noundef nonnull align 8 dereferenceable(8) %11, ptr noundef @.str.20)
  %49 = invoke noundef nonnull align 8 dereferenceable(64) ptr @_ZN6icu_7713UnicodeString6appendENS_14ConstChar16PtrEi(ptr noundef nonnull align 8 dereferenceable(64) %48, ptr noundef %11, i32 noundef -1)
          to label %50 unwind label %51

50:                                               ; preds = %47
  call void @_ZN6icu_7714ConstChar16PtrD2Ev(ptr noundef nonnull align 8 dereferenceable(8) %11) #14
  br label %72

51:                                               ; preds = %47
  %52 = landingpad { ptr, i32 }
          cleanup
  %53 = extractvalue { ptr, i32 } %52, 0
  store ptr %53, ptr %6, align 8
  %54 = extractvalue { ptr, i32 } %52, 1
  store i32 %54, ptr %7, align 4
  call void @_ZN6icu_7714ConstChar16PtrD2Ev(ptr noundef nonnull align 8 dereferenceable(8) %11) #14
  br label %73

55:                                               ; preds = %2
  %56 = load ptr, ptr %4, align 8, !tbaa !27
  call void @_ZN6icu_7714ConstChar16PtrC2EPKDs(ptr noundef nonnull align 8 dereferenceable(8) %12, ptr noundef @.str.21)
  %57 = invoke noundef nonnull align 8 dereferenceable(64) ptr @_ZN6icu_7713UnicodeString6appendENS_14ConstChar16PtrEi(ptr noundef nonnull align 8 dereferenceable(64) %56, ptr noundef %12, i32 noundef -1)
          to label %58 unwind label %59

58:                                               ; preds = %55
  call void @_ZN6icu_7714ConstChar16PtrD2Ev(ptr noundef nonnull align 8 dereferenceable(8) %12) #14
  br label %72

59:                                               ; preds = %55
  %60 = landingpad { ptr, i32 }
          cleanup
  %61 = extractvalue { ptr, i32 } %60, 0
  store ptr %61, ptr %6, align 8
  %62 = extractvalue { ptr, i32 } %60, 1
  store i32 %62, ptr %7, align 4
  call void @_ZN6icu_7714ConstChar16PtrD2Ev(ptr noundef nonnull align 8 dereferenceable(8) %12) #14
  br label %73

63:                                               ; preds = %2
  %64 = load ptr, ptr %4, align 8, !tbaa !27
  call void @_ZN6icu_7714ConstChar16PtrC2EPKDs(ptr noundef nonnull align 8 dereferenceable(8) %13, ptr noundef @.str.22)
  %65 = invoke noundef nonnull align 8 dereferenceable(64) ptr @_ZN6icu_7713UnicodeString6appendENS_14ConstChar16PtrEi(ptr noundef nonnull align 8 dereferenceable(64) %64, ptr noundef %13, i32 noundef -1)
          to label %66 unwind label %67

66:                                               ; preds = %63
  call void @_ZN6icu_7714ConstChar16PtrD2Ev(ptr noundef nonnull align 8 dereferenceable(8) %13) #14
  br label %72

67:                                               ; preds = %63
  %68 = landingpad { ptr, i32 }
          cleanup
  %69 = extractvalue { ptr, i32 } %68, 0
  store ptr %69, ptr %6, align 8
  %70 = extractvalue { ptr, i32 } %68, 1
  store i32 %70, ptr %7, align 4
  call void @_ZN6icu_7714ConstChar16PtrD2Ev(ptr noundef nonnull align 8 dereferenceable(8) %13) #14
  br label %73

71:                                               ; preds = %2
  call void @abort() #16
  unreachable

72:                                               ; preds = %66, %58, %50, %42, %34, %26, %18
  ret void

73:                                               ; preds = %67, %59, %51, %43, %35, %27, %19
  %74 = load ptr, ptr %6, align 8
  %75 = load i32, ptr %7, align 4
  %76 = insertvalue { ptr, i32 } poison, ptr %74, 0
  %77 = insertvalue { ptr, i32 } %76, i32 %75, 1
  resume { ptr, i32 } %77
}