; Function Attrs: mustprogress uwtable
define void @_ZN6icu_776number4impl19enum_to_stem_string9unitWidthE16UNumberUnitWidthRNS_13UnicodeStringE(i32 noundef %0, ptr noundef nonnull align 8 dereferenceable(64) %1) local_unnamed_addr #1 personality ptr @__gxx_personality_v0 {
  switch i32 %0, label %31 [
    i32 0, label %3
    i32 1, label %7
    i32 2, label %11
    i32 3, label %15
    i32 4, label %19
    i32 5, label %23
    i32 6, label %27
  ]

3:                                                ; preds = %2
  %4 = invoke noundef nonnull align 8 dereferenceable(64) ptr @_ZN6icu_7713UnicodeString8doAppendEPKDsii(ptr noundef nonnull align 8 dereferenceable(64) %1, ptr noundef nonnull @.str.16, i32 noundef 0, i32 noundef -1)
          to label %_ZN6icu_7713UnicodeString6appendENS_14ConstChar16PtrEi.exit unwind label %5

_ZN6icu_7713UnicodeString6appendENS_14ConstChar16PtrEi.exit: ; preds = %3
  tail call void asm sideeffect "", "rm,~{memory},~{dirflag},~{fpsr},~{flags}"(ptr nonnull @.str.16) #18, !srcloc !15
  br label %32

5:                                                ; preds = %3
  %6 = landingpad { ptr, i32 }
          cleanup
  tail call void asm sideeffect "", "rm,~{memory},~{dirflag},~{fpsr},~{flags}"(ptr nonnull @.str.16) #18, !srcloc !15
  br label %33

7:                                                ; preds = %2
  %8 = invoke noundef nonnull align 8 dereferenceable(64) ptr @_ZN6icu_7713UnicodeString8doAppendEPKDsii(ptr noundef nonnull align 8 dereferenceable(64) %1, ptr noundef nonnull @.str.17, i32 noundef 0, i32 noundef -1)
          to label %_ZN6icu_7713UnicodeString6appendENS_14ConstChar16PtrEi.exit11 unwind label %9

_ZN6icu_7713UnicodeString6appendENS_14ConstChar16PtrEi.exit11: ; preds = %7
  tail call void asm sideeffect "", "rm,~{memory},~{dirflag},~{fpsr},~{flags}"(ptr nonnull @.str.17) #18, !srcloc !15
  br label %32

9:                                                ; preds = %7
  %10 = landingpad { ptr, i32 }
          cleanup
  tail call void asm sideeffect "", "rm,~{memory},~{dirflag},~{fpsr},~{flags}"(ptr nonnull @.str.17) #18, !srcloc !15
  br label %33

11:                                               ; preds = %2
  %12 = invoke noundef nonnull align 8 dereferenceable(64) ptr @_ZN6icu_7713UnicodeString8doAppendEPKDsii(ptr noundef nonnull align 8 dereferenceable(64) %1, ptr noundef nonnull @.str.18, i32 noundef 0, i32 noundef -1)
          to label %_ZN6icu_7713UnicodeString6appendENS_14ConstChar16PtrEi.exit12 unwind label %13

_ZN6icu_7713UnicodeString6appendENS_14ConstChar16PtrEi.exit12: ; preds = %11
  tail call void asm sideeffect "", "rm,~{memory},~{dirflag},~{fpsr},~{flags}"(ptr nonnull @.str.18) #18, !srcloc !15
  br label %32

13:                                               ; preds = %11
  %14 = landingpad { ptr, i32 }
          cleanup
  tail call void asm sideeffect "", "rm,~{memory},~{dirflag},~{fpsr},~{flags}"(ptr nonnull @.str.18) #18, !srcloc !15
  br label %33

15:                                               ; preds = %2
  %16 = invoke noundef nonnull align 8 dereferenceable(64) ptr @_ZN6icu_7713UnicodeString8doAppendEPKDsii(ptr noundef nonnull align 8 dereferenceable(64) %1, ptr noundef nonnull @.str.19, i32 noundef 0, i32 noundef -1)
          to label %_ZN6icu_7713UnicodeString6appendENS_14ConstChar16PtrEi.exit13 unwind label %17

_ZN6icu_7713UnicodeString6appendENS_14ConstChar16PtrEi.exit13: ; preds = %15
  tail call void asm sideeffect "", "rm,~{memory},~{dirflag},~{fpsr},~{flags}"(ptr nonnull @.str.19) #18, !srcloc !15
  br label %32

17:                                               ; preds = %15
  %18 = landingpad { ptr, i32 }
          cleanup
  tail call void asm sideeffect "", "rm,~{memory},~{dirflag},~{fpsr},~{flags}"(ptr nonnull @.str.19) #18, !srcloc !15
  br label %33

19:                                               ; preds = %2
  %20 = invoke noundef nonnull align 8 dereferenceable(64) ptr @_ZN6icu_7713UnicodeString8doAppendEPKDsii(ptr noundef nonnull align 8 dereferenceable(64) %1, ptr noundef nonnull @.str.20, i32 noundef 0, i32 noundef -1)
          to label %_ZN6icu_7713UnicodeString6appendENS_14ConstChar16PtrEi.exit14 unwind label %21

_ZN6icu_7713UnicodeString6appendENS_14ConstChar16PtrEi.exit14: ; preds = %19
  tail call void asm sideeffect "", "rm,~{memory},~{dirflag},~{fpsr},~{flags}"(ptr nonnull @.str.20) #18, !srcloc !15
  br label %32

21:                                               ; preds = %19
  %22 = landingpad { ptr, i32 }
          cleanup
  tail call void asm sideeffect "", "rm,~{memory},~{dirflag},~{fpsr},~{flags}"(ptr nonnull @.str.20) #18, !srcloc !15
  br label %33

23:                                               ; preds = %2
  %24 = invoke noundef nonnull align 8 dereferenceable(64) ptr @_ZN6icu_7713UnicodeString8doAppendEPKDsii(ptr noundef nonnull align 8 dereferenceable(64) %1, ptr noundef nonnull @.str.21, i32 noundef 0, i32 noundef -1)
          to label %_ZN6icu_7713UnicodeString6appendENS_14ConstChar16PtrEi.exit15 unwind label %25

_ZN6icu_7713UnicodeString6appendENS_14ConstChar16PtrEi.exit15: ; preds = %23
  tail call void asm sideeffect "", "rm,~{memory},~{dirflag},~{fpsr},~{flags}"(ptr nonnull @.str.21) #18, !srcloc !15
  br label %32

25:                                               ; preds = %23
  %26 = landingpad { ptr, i32 }
          cleanup
  tail call void asm sideeffect "", "rm,~{memory},~{dirflag},~{fpsr},~{flags}"(ptr nonnull @.str.21) #18, !srcloc !15
  br label %33

27:                                               ; preds = %2
  %28 = invoke noundef nonnull align 8 dereferenceable(64) ptr @_ZN6icu_7713UnicodeString8doAppendEPKDsii(ptr noundef nonnull align 8 dereferenceable(64) %1, ptr noundef nonnull @.str.22, i32 noundef 0, i32 noundef -1)
          to label %_ZN6icu_7713UnicodeString6appendENS_14ConstChar16PtrEi.exit16 unwind label %29

_ZN6icu_7713UnicodeString6appendENS_14ConstChar16PtrEi.exit16: ; preds = %27
  tail call void asm sideeffect "", "rm,~{memory},~{dirflag},~{fpsr},~{flags}"(ptr nonnull @.str.22) #18, !srcloc !15
  br label %32

29:                                               ; preds = %27
  %30 = landingpad { ptr, i32 }
          cleanup
  tail call void asm sideeffect "", "rm,~{memory},~{dirflag},~{fpsr},~{flags}"(ptr nonnull @.str.22) #18, !srcloc !15
  br label %33

31:                                               ; preds = %2
  tail call void @abort() #20
  unreachable

32:                                               ; preds = %_ZN6icu_7713UnicodeString6appendENS_14ConstChar16PtrEi.exit16, %_ZN6icu_7713UnicodeString6appendENS_14ConstChar16PtrEi.exit15, %_ZN6icu_7713UnicodeString6appendENS_14ConstChar16PtrEi.exit14, %_ZN6icu_7713UnicodeString6appendENS_14ConstChar16PtrEi.exit13, %_ZN6icu_7713UnicodeString6appendENS_14ConstChar16PtrEi.exit12, %_ZN6icu_7713UnicodeString6appendENS_14ConstChar16PtrEi.exit11, %_ZN6icu_7713UnicodeString6appendENS_14ConstChar16PtrEi.exit
  ret void

33:                                               ; preds = %29, %25, %21, %17, %13, %9, %5
  %.pn = phi { ptr, i32 } [ %30, %29 ], [ %26, %25 ], [ %22, %21 ], [ %18, %17 ], [ %14, %13 ], [ %10, %9 ], [ %6, %5 ]
  resume { ptr, i32 } %.pn
}